; Function Attrs: mustprogress nounwind uwtable
define hidden void @_ZN6Assimp15ObjFileImporterD2Ev(ptr noundef nonnull align 8 dereferenceable(136) %this) unnamed_addr #1 align 2 personality ptr @__gxx_personality_v0 {
entry:
  store ptr getelementptr inbounds ({ [8 x ptr] }, ptr @_ZTVN6Assimp15ObjFileImporterE, i64 0, i32 0, i64 2), ptr %this, align 8
  %m_pRootObject = getelementptr inbounds i8, ptr %this, i64 96
  %0 = load ptr, ptr %m_pRootObject, align 8
  %isnull = icmp eq ptr %0, null
  br i1 %isnull, label %delete.end, label %delete.notnull

delete.notnull:                                   ; preds = %entry
  tail call void @_ZN6Assimp7ObjFile6ObjectD2Ev(ptr noundef nonnull align 8 dereferenceable(144) %0) #18
  tail call void @_ZdlPv(ptr noundef nonnull %0) #19
  br label %delete.end

delete.end:                                       ; preds = %delete.notnull, %entry
  %m_strAbsPath = getelementptr inbounds i8, ptr %this, i64 104
  tail call void @_ZNSt7__cxx1112basic_stringIcSt11char_traitsIcESaIcEED1Ev(ptr noundef nonnull align 8 dereferenceable(32) %m_strAbsPath) #18
  %m_Buffer = getelementptr inbounds i8, ptr %this, i64 72
  %1 = load ptr, ptr %m_Buffer, align 8
  %tobool.not.i.i.i = icmp eq ptr %1, null
  br i1 %tobool.not.i.i.i, label %_ZNSt6vectorIcSaIcEED2Ev.exit, label %if.then.i.i.i

if.then.i.i.i:                                    ; preds = %delete.end
  tail call void @_ZdlPv(ptr noundef nonnull %1) #19
  br label %_ZNSt6vectorIcSaIcEED2Ev.exit

_ZNSt6vectorIcSaIcEED2Ev.exit:                    ; preds = %delete.end, %if.then.i.i.i
  tail call void @_ZNSaIcED2Ev(ptr noundef nonnull align 1 dereferenceable(1) %m_Buffer) #18
  tail call void @_ZN6Assimp12BaseImporterD2Ev(ptr noundef nonnull align 8 dereferenceable(72) %this) #18
  ret void
}